target datalayout = "e-m:e-p270:32:32-p271:32:32-p272:64:64-i64:64-i128:128-f80:128-n8:16:32:64-S128"
target triple = "x86_64-pc-linux-gnu"

%"class.boost::urls::params_base::iterator" = type <{ %"struct.boost::urls::detail::params_iter_impl", i8, [7 x i8] }>
%"struct.boost::urls::detail::params_iter_impl" = type { [8 x i8], %"class.boost::urls::detail::query_ref", i64, i64, i64, i64, i64, i64 }
%"class.boost::urls::detail::query_ref" = type <{ ptr, ptr, i64, i64, i64, i8, [7 x i8] }>
%"class.boost::urls::params_base" = type { %"class.boost::urls::detail::query_ref", %"struct.boost::urls::encoding_opts", [5 x i8] }
%"struct.boost::urls::encoding_opts" = type { i8, i8, i8 }
%"class.boost::urls::params_base.base" = type { %"class.boost::urls::detail::query_ref", %"struct.boost::urls::encoding_opts" }
%"class.boost::core::basic_string_view" = type { ptr, i64 }
%"struct.boost::urls::detail::any_params_iter.base" = type <{ ptr, %"class.boost::core::basic_string_view", %"class.boost::core::basic_string_view", i8 }>
%"class.boost::urls::params_ref" = type { %"class.boost::urls::params_base.base", ptr }
%"struct.boost::urls::detail::query_iter" = type <{ %"struct.boost::urls::detail::any_params_iter.base", [7 x i8], %"class.boost::core::basic_string_view", i64, ptr, i8, [7 x i8] }>

@.str = private unnamed_addr constant [1 x i8] zeroinitializer, align 1

; Function Attrs: mustprogress nounwind uwtable
define linkonce_odr hidden void @_ZN5boost4urls11params_base8iteratorC2ERKNS0_6detail16params_iter_implENS0_13encoding_optsE(ptr noundef nonnull align 8 dereferenceable(105) %0, ptr noundef nonnull align 8 dereferenceable(104) %1, i24 %2) unnamed_addr #2 comdat align 2 {
  %4 = alloca %"struct.boost::urls::encoding_opts", align 1
  %5 = alloca ptr, align 8
  %6 = alloca ptr, align 8
  store i24 %2, ptr %4, align 1
  store ptr %0, ptr %5, align 8, !tbaa !3
  store ptr %1, ptr %6, align 8, !tbaa !3
  %7 = load ptr, ptr %5, align 8
  %8 = getelementptr inbounds nuw %"class.boost::urls::params_base::iterator", ptr %7, i32 0, i32 0
  %9 = load ptr, ptr %6, align 8, !tbaa !3
  call void @llvm.memcpy.p0.p0.i64(ptr align 8 %8, ptr align 8 %9, i64 104, i1 false)
  %10 = getelementptr inbounds nuw %"class.boost::urls::params_base::iterator", ptr %7, i32 0, i32 1
  %11 = getelementptr inbounds nuw %"struct.boost::urls::encoding_opts", ptr %4, i32 0, i32 0
  %12 = load i8, ptr %11, align 1, !tbaa !20, !range !21, !noundef !22
  %13 = trunc i8 %12 to i1
  %14 = zext i1 %13 to i8
  store i8 %14, ptr %10, align 8, !tbaa !23
  ret void
}

; Function Attrs: mustprogress nounwind uwtable
define linkonce_odr hidden void @_ZN5boost4core17basic_string_viewIcEC2EPKcm(ptr noundef nonnull align 8 dereferenceable(16) %0, ptr noundef %1, i64 noundef %2) unnamed_addr #2 comdat align 2 {
  %4 = alloca ptr, align 8
  %5 = alloca ptr, align 8
  %6 = alloca i64, align 8
  store ptr %0, ptr %4, align 8, !tbaa !3
  store ptr %1, ptr %5, align 8, !tbaa !3
  store i64 %2, ptr %6, align 8, !tbaa !27
  %7 = load ptr, ptr %4, align 8
  %8 = getelementptr inbounds nuw %"class.boost::core::basic_string_view", ptr %7, i32 0, i32 0
  %9 = load ptr, ptr %5, align 8, !tbaa !3
  store ptr %9, ptr %8, align 8, !tbaa !31
  %10 = getelementptr inbounds nuw %"class.boost::core::basic_string_view", ptr %7, i32 0, i32 1
  %11 = load i64, ptr %6, align 8, !tbaa !27
  store i64 %11, ptr %10, align 8, !tbaa !33
  ret void
}

; Function Attrs: mustprogress nounwind uwtable
define void @_ZN5boost4urls10params_ref5eraseENS0_11params_base8iteratorES3_(ptr dead_on_unwind noalias writable sret(%"class.boost::urls::params_base::iterator") align 8 %0, ptr noundef nonnull align 8 dereferenceable(64) %1, ptr noundef byval(%"class.boost::urls::params_base::iterator") align 8 %2, ptr noundef byval(%"class.boost::urls::params_base::iterator") align 8 %3) #2 align 2 personality ptr @__gxx_personality_v0 {
  %5 = alloca ptr, align 8
  %6 = alloca %"class.boost::core::basic_string_view", align 8
  %7 = alloca %"struct.boost::urls::detail::params_iter_impl", align 8
  %8 = alloca %"struct.boost::urls::detail::query_iter", align 8
  %9 = alloca %"class.boost::core::basic_string_view", align 8
  %10 = alloca %"struct.boost::urls::encoding_opts", align 1
  %11 = alloca i24, align 4
  store ptr %1, ptr %5, align 8, !tbaa !3
  %12 = load ptr, ptr %5, align 8
  call void @llvm.lifetime.start.p0(i64 16, ptr %6) #10
  call void @_ZN5boost4core17basic_string_viewIcEC2EPKcm(ptr noundef nonnull align 8 dereferenceable(16) %6, ptr noundef @.str, i64 noundef 0) #10
  call void @llvm.lifetime.start.p0(i64 104, ptr %7) #10
  %13 = getelementptr inbounds nuw %"class.boost::urls::params_ref", ptr %12, i32 0, i32 1
  %14 = load ptr, ptr %13, align 8, !tbaa !16
  %15 = getelementptr inbounds nuw %"class.boost::urls::params_base::iterator", ptr %2, i32 0, i32 0
  %16 = getelementptr inbounds nuw %"class.boost::urls::params_base::iterator", ptr %3, i32 0, i32 0
  call void @llvm.lifetime.start.p0(i64 88, ptr %8) #10
  call void @llvm.memcpy.p0.p0.i64(ptr align 8 %9, ptr align 8 %6, i64 16, i1 false), !tbaa.struct !26
  %17 = getelementptr inbounds nuw { ptr, i64 }, ptr %9, i32 0, i32 0
  %18 = load ptr, ptr %17, align 8
  %19 = getelementptr inbounds nuw { ptr, i64 }, ptr %9, i32 0, i32 1
  %20 = load i64, ptr %19, align 8
  call void @_ZN5boost4urls6detail10query_iterC1ENS_4core17basic_string_viewIcEEb(ptr noundef nonnull align 8 dereferenceable(81) %8, ptr %18, i64 %20, i1 noundef zeroext false) #10
  invoke void @_ZN5boost4urls8url_base11edit_paramsERKNS0_6detail16params_iter_implES5_ONS2_15any_params_iterE(ptr dead_on_unwind writable sret(%"struct.boost::urls::detail::params_iter_impl") align 8 %7, ptr noundef nonnull align 8 dereferenceable(216) %14, ptr noundef nonnull align 8 dereferenceable(104) %15, ptr noundef nonnull align 8 dereferenceable(104) %16, ptr noundef nonnull align 8 dereferenceable(41) %8)
          to label %21 unwind label %24

21:                                               ; preds = %4
  %22 = getelementptr inbounds nuw %"class.boost::urls::params_base", ptr %12, i32 0, i32 1
  call void @llvm.memcpy.p0.p0.i64(ptr align 1 %10, ptr align 8 %22, i64 3, i1 false), !tbaa.struct !12
  call void @llvm.memcpy.p0.p0.i64(ptr align 4 %11, ptr align 1 %10, i64 3, i1 false)
  %23 = load i24, ptr %11, align 4
  call void @_ZN5boost4urls11params_base8iteratorC2ERKNS0_6detail16params_iter_implENS0_13encoding_optsE(ptr noundef nonnull align 8 dereferenceable(105) %0, ptr noundef nonnull align 8 dereferenceable(104) %7, i24 %23) #10
  call void @_ZN5boost4urls6detail15any_params_iterD2Ev(ptr noundef nonnull align 8 dereferenceable(81) %8) #10
  call void @llvm.lifetime.end.p0(i64 88, ptr %8) #10
  call void @llvm.lifetime.end.p0(i64 104, ptr %7) #10
  call void @llvm.lifetime.end.p0(i64 16, ptr %6) #10
  ret void

24:                                               ; preds = %4
  %25 = landingpad { ptr, i32 }
          catch ptr null
  %26 = extractvalue { ptr, i32 } %25, 0
  call void @__clang_call_terminate(ptr %26) #11
  unreachable
}